target datalayout = "e-m:e-p270:32:32-p271:32:32-p272:64:64-i64:64-i128:128-f80:128-n8:16:32:64-S128"
target triple = "x86_64-pc-linux-gnu"

@testctx = internal global ptr null, align 8
@.str.18 = private unnamed_addr constant [33 x i8] c"../openssl/test/evp_extra_test.c\00", align 1
@.str.100 = private unnamed_addr constant [7 x i8] c"sha256\00", align 1
@.str.112 = private unnamed_addr constant [2 x i8] c"0\00", align 1
@testpropq = internal global ptr null, align 8
@.str.391 = private unnamed_addr constant [3 x i8] c"md\00", align 1
@.str.529 = private unnamed_addr constant [26 x i8] c"EVP_PKEY_keygen_init(ctx)\00", align 1
@.str.530 = private unnamed_addr constant [28 x i8] c"EVP_PKEY_keygen(ctx, &pkey)\00", align 1
@.str.577 = private unnamed_addr constant [66 x i8] c"(ctx = EVP_PKEY_CTX_new_from_name(testctx, \22RSA-PSS\22, testpropq))\00", align 1
@.str.578 = private unnamed_addr constant [8 x i8] c"RSA-PSS\00", align 1
@.str.579 = private unnamed_addr constant [43 x i8] c"EVP_PKEY_CTX_set_rsa_keygen_bits(ctx, 512)\00", align 1
@.str.580 = private unnamed_addr constant [44 x i8] c"EVP_PKEY_CTX_set_rsa_pss_keygen_md(ctx, md)\00", align 1

; Function Attrs: nounwind uwtable
define internal i32 @test_EVP_rsa_pss_with_keygen_bits() #0 {
  %1 = alloca i32, align 4
  %2 = alloca ptr, align 8
  %3 = alloca ptr, align 8
  %4 = alloca ptr, align 8
  call void @llvm.lifetime.start.p0(i64 4, ptr %1) #8
  store i32 0, ptr %1, align 4, !tbaa !9
  call void @llvm.lifetime.start.p0(i64 8, ptr %2) #8
  store ptr null, ptr %2, align 8, !tbaa !29
  call void @llvm.lifetime.start.p0(i64 8, ptr %3) #8
  store ptr null, ptr %3, align 8, !tbaa !21
  call void @llvm.lifetime.start.p0(i64 8, ptr %4) #8
  %5 = load ptr, ptr @testctx, align 8, !tbaa !11
  %6 = load ptr, ptr @testpropq, align 8, !tbaa !4
  %7 = call ptr @EVP_MD_fetch(ptr noundef %5, ptr noundef @.str.100, ptr noundef %6)
  store ptr %7, ptr %4, align 8, !tbaa !19
  %8 = load ptr, ptr %4, align 8, !tbaa !19
  %9 = call i32 @test_ptr(ptr noundef @.str.18, i32 noundef 4506, ptr noundef @.str.391, ptr noundef %8)
  %10 = icmp ne i32 %9, 0
  br i1 %10, label %11, label %40

11:                                               ; preds = %0
  %12 = load ptr, ptr @testctx, align 8, !tbaa !11
  %13 = load ptr, ptr @testpropq, align 8, !tbaa !4
  %14 = call ptr @EVP_PKEY_CTX_new_from_name(ptr noundef %12, ptr noundef @.str.578, ptr noundef %13)
  store ptr %14, ptr %2, align 8, !tbaa !29
  %15 = call i32 @test_ptr(ptr noundef @.str.18, i32 noundef 4507, ptr noundef @.str.577, ptr noundef %14)
  %16 = icmp ne i32 %15, 0
  br i1 %16, label %17, label %40

17:                                               ; preds = %11
  %18 = load ptr, ptr %2, align 8, !tbaa !29
  %19 = call i32 @EVP_PKEY_keygen_init(ptr noundef %18)
  %20 = call i32 @test_int_gt(ptr noundef @.str.18, i32 noundef 4508, ptr noundef @.str.529, ptr noundef @.str.112, i32 noundef %19, i32 noundef 0)
  %21 = icmp ne i32 %20, 0
  br i1 %21, label %22, label %40

22:                                               ; preds = %17
  %23 = load ptr, ptr %2, align 8, !tbaa !29
  %24 = call i32 @EVP_PKEY_CTX_set_rsa_keygen_bits(ptr noundef %23, i32 noundef 512)
  %25 = call i32 @test_int_gt(ptr noundef @.str.18, i32 noundef 4509, ptr noundef @.str.579, ptr noundef @.str.112, i32 noundef %24, i32 noundef 0)
  %26 = icmp ne i32 %25, 0
  br i1 %26, label %27, label %40

27:                                               ; preds = %22
  %28 = load ptr, ptr %2, align 8, !tbaa !29
  %29 = load ptr, ptr %4, align 8, !tbaa !19
  %30 = call i32 @EVP_PKEY_CTX_set_rsa_pss_keygen_md(ptr noundef %28, ptr noundef %29)
  %31 = call i32 @test_int_gt(ptr noundef @.str.18, i32 noundef 4510, ptr noundef @.str.580, ptr noundef @.str.112, i32 noundef %30, i32 noundef 0)
  %32 = icmp ne i32 %31, 0
  br i1 %32, label %33, label %40

33:                                               ; preds = %27
  %34 = load ptr, ptr %2, align 8, !tbaa !29
  %35 = call i32 @EVP_PKEY_keygen(ptr noundef %34, ptr noundef %3)
  %36 = icmp ne i32 %35, 0
  %37 = zext i1 %36 to i32
  %38 = call i32 @test_true(ptr noundef @.str.18, i32 noundef 4511, ptr noundef @.str.530, i32 noundef %37)
  %39 = icmp ne i32 %38, 0
  br label %40

40:                                               ; preds = %33, %27, %22, %17, %11, %0
  %41 = phi i1 [ false, %27 ], [ false, %22 ], [ false, %17 ], [ false, %11 ], [ false, %0 ], [ %39, %33 ]
  %42 = zext i1 %41 to i32
  store i32 %42, ptr %1, align 4, !tbaa !9
  %43 = load ptr, ptr %4, align 8, !tbaa !19
  call void @EVP_MD_free(ptr noundef %43)
  %44 = load ptr, ptr %3, align 8, !tbaa !21
  call void @EVP_PKEY_free(ptr noundef %44)
  %45 = load ptr, ptr %2, align 8, !tbaa !29
  call void @EVP_PKEY_CTX_free(ptr noundef %45)
  %46 = load i32, ptr %1, align 4, !tbaa !9
  call void @llvm.lifetime.end.p0(i64 8, ptr %4) #8
  call void @llvm.lifetime.end.p0(i64 8, ptr %3) #8
  call void @llvm.lifetime.end.p0(i64 8, ptr %2) #8
  call void @llvm.lifetime.end.p0(i64 4, ptr %1) #8
  ret i32 %46
}