; Function Attrs: nounwind uwtable
define internal range(i32 0, 2) i32 @test_EVP_rsa_pss_with_keygen_bits() #1 {
  %1 = alloca ptr, align 8
  call void @llvm.lifetime.start.p0(i64 8, ptr nonnull %1) #9
  store ptr null, ptr %1, align 8, !tbaa !21
  %2 = load ptr, ptr @testctx, align 8, !tbaa !6
  %3 = tail call ptr @EVP_MD_fetch(ptr noundef %2, ptr noundef nonnull @.str.100, ptr noundef null) #9
  %4 = tail call i32 @test_ptr(ptr noundef nonnull @.str.18, i32 noundef 4506, ptr noundef nonnull @.str.391, ptr noundef %3) #9
  %.not = icmp eq i32 %4, 0
  br i1 %.not, label %25, label %5

5:                                                ; preds = %0
  %6 = load ptr, ptr @testctx, align 8, !tbaa !6
  %7 = tail call ptr @EVP_PKEY_CTX_new_from_name(ptr noundef %6, ptr noundef nonnull @.str.578, ptr noundef null) #9
  %8 = tail call i32 @test_ptr(ptr noundef nonnull @.str.18, i32 noundef 4507, ptr noundef nonnull @.str.577, ptr noundef %7) #9
  %.not8 = icmp eq i32 %8, 0
  br i1 %.not8, label %25, label %9

9:                                                ; preds = %5
  %10 = tail call i32 @EVP_PKEY_keygen_init(ptr noundef %7) #9
  %11 = tail call i32 @test_int_gt(ptr noundef nonnull @.str.18, i32 noundef 4508, ptr noundef nonnull @.str.529, ptr noundef nonnull @.str.112, i32 noundef %10, i32 noundef 0) #9
  %.not9 = icmp eq i32 %11, 0
  br i1 %.not9, label %25, label %12

12:                                               ; preds = %9
  %13 = tail call i32 @EVP_PKEY_CTX_set_rsa_keygen_bits(ptr noundef %7, i32 noundef 512) #9
  %14 = tail call i32 @test_int_gt(ptr noundef nonnull @.str.18, i32 noundef 4509, ptr noundef nonnull @.str.579, ptr noundef nonnull @.str.112, i32 noundef %13, i32 noundef 0) #9
  %.not10 = icmp eq i32 %14, 0
  br i1 %.not10, label %25, label %15

15:                                               ; preds = %12
  %16 = tail call i32 @EVP_PKEY_CTX_set_rsa_pss_keygen_md(ptr noundef %7, ptr noundef %3) #9
  %17 = tail call i32 @test_int_gt(ptr noundef nonnull @.str.18, i32 noundef 4510, ptr noundef nonnull @.str.580, ptr noundef nonnull @.str.112, i32 noundef %16, i32 noundef 0) #9
  %.not11 = icmp eq i32 %17, 0
  br i1 %.not11, label %25, label %18

18:                                               ; preds = %15
  %19 = call i32 @EVP_PKEY_keygen(ptr noundef %7, ptr noundef nonnull %1) #9
  %20 = icmp ne i32 %19, 0
  %21 = zext i1 %20 to i32
  %22 = call i32 @test_true(ptr noundef nonnull @.str.18, i32 noundef 4511, ptr noundef nonnull @.str.530, i32 noundef %21) #9
  %23 = icmp ne i32 %22, 0
  %24 = zext i1 %23 to i32
  br label %25

25:                                               ; preds = %18, %15, %12, %9, %5, %0
  %.0 = phi ptr [ %7, %18 ], [ %7, %15 ], [ %7, %12 ], [ %7, %9 ], [ %7, %5 ], [ null, %0 ]
  %26 = phi i32 [ %24, %18 ], [ 0, %15 ], [ 0, %12 ], [ 0, %9 ], [ 0, %5 ], [ 0, %0 ]
  call void @EVP_MD_free(ptr noundef %3) #9
  %27 = load ptr, ptr %1, align 8, !tbaa !21
  call void @EVP_PKEY_free(ptr noundef %27) #9
  call void @EVP_PKEY_CTX_free(ptr noundef %.0) #9
  call void @llvm.lifetime.end.p0(i64 8, ptr nonnull %1) #9
  ret i32 %26
}